; Function Attrs: mustprogress nounwind uwtable
define dso_local noundef ptr @_ZN5clang4ento16MemRegionManager20getNonParamVarRegionEPKNS_7VarDeclEPKNS0_9MemRegionE(ptr noundef nonnull align 8 dereferenceable(152) %0, ptr noundef %1, ptr noundef %2) local_unnamed_addr #3 align 2 {
  %4 = load ptr, ptr %1, align 8
  %5 = getelementptr inbounds i8, ptr %4, i64 32
  %6 = load ptr, ptr %5, align 8
  %7 = tail call noundef ptr %6(ptr noundef nonnull align 8 dereferenceable(100) %1) #20
  %8 = tail call noundef nonnull align 8 dereferenceable(23096) ptr @_ZNK5clang4Decl13getASTContextEv(ptr noundef nonnull align 8 dereferenceable(33) %7) #21
  %9 = tail call noundef ptr @_ZN5clang7VarDecl13getDefinitionERNS_10ASTContextE(ptr noundef nonnull align 8 dereferenceable(100) %7, ptr noundef nonnull align 8 dereferenceable(23096) %8) #20
  %.not = icmp eq ptr %9, null
  %spec.select = select i1 %.not, ptr %7, ptr %9
  %10 = tail call noundef ptr @_ZN5clang4ento16MemRegionManager12getSubRegionINS0_17NonParamVarRegionENS0_9MemRegionEPKNS_7VarDeclEEEPT_T1_PKT0_(ptr noundef nonnull align 8 dereferenceable(152) %0, ptr noundef nonnull %spec.select, ptr noundef %2)
  ret ptr %10
}